; ModuleID = 'source-C-CXX/53/863.c'
source_filename = "source-C-CXX/53/863.c"
target datalayout = "e-m:e-p270:32:32-p271:32:32-p272:64:64-i64:64-f80:128-n8:16:32:64-S128"
target triple = "x86_64-pc-linux-gnu"

@.str = private unnamed_addr constant [5 x i8] c"%d%d\00", align 1
@.str.1 = private unnamed_addr constant [4 x i8] c"%d\0A\00", align 1

; Function Attrs: nofree nounwind sspstrong uwtable
define dso_local void @main() local_unnamed_addr #0 {
  %1 = alloca i32, align 4
  %2 = alloca i32, align 4
  %3 = bitcast i32* %1 to i8*
  call void @llvm.lifetime.start.p0i8(i64 4, i8* nonnull %3) #4
  %4 = bitcast i32* %2 to i8*
  call void @llvm.lifetime.start.p0i8(i64 4, i8* nonnull %4) #4
  %5 = call i32 (i8*, ...) @__isoc99_scanf(i8* getelementptr inbounds ([5 x i8], [5 x i8]* @.str, i64 0, i64 0), i32* nonnull %1, i32* nonnull %2)
  %6 = load i32, i32* %1, align 4, !tbaa !5
  %7 = load i32, i32* %2, align 4, !tbaa !5
  br label %8

8:                                                ; preds = %8, %0
  %9 = phi i32 [ 0, %0 ], [ %10, %8 ]
  %10 = add nuw nsw i32 %9, 1
  %11 = call i32 @f(i32 %6, i32 %7, i32 %6, i32 %10)
  %12 = icmp slt i32 %11, 0
  br i1 %12, label %8, label %13, !llvm.loop !9

13:                                               ; preds = %8
  %14 = call i32 (i8*, ...) @printf(i8* nonnull dereferenceable(1) getelementptr inbounds ([4 x i8], [4 x i8]* @.str.1, i64 0, i64 0), i32 %11)
  call void @llvm.lifetime.end.p0i8(i64 4, i8* nonnull %4) #4
  call void @llvm.lifetime.end.p0i8(i64 4, i8* nonnull %3) #4
  ret void
}

; Function Attrs: argmemonly mustprogress nofree nosync nounwind willreturn
declare void @llvm.lifetime.start.p0i8(i64 immarg, i8* nocapture) #1

; Function Attrs: nofree nounwind
declare noundef i32 @__isoc99_scanf(i8* nocapture noundef readonly, ...) local_unnamed_addr #2

; Function Attrs: nofree nosync nounwind readnone sspstrong uwtable
define dso_local i32 @f(i32 %0, i32 %1, i32 %2, i32 %3) local_unnamed_addr #3 {
  %5 = icmp sgt i32 %2, 1
  br i1 %5, label %6, label %18

6:                                                ; preds = %4
  %7 = add nsw i32 %2, -1
  %8 = tail call i32 @f(i32 %0, i32 %1, i32 %7, i32 %3)
  %9 = icmp eq i32 %8, -1
  br i1 %9, label %21, label %10

10:                                               ; preds = %6
  %11 = add nsw i32 %0, -1
  %12 = srem i32 %8, %11
  %13 = icmp eq i32 %12, 0
  br i1 %13, label %14, label %21

14:                                               ; preds = %10
  %15 = mul nsw i32 %8, %0
  %16 = sdiv i32 %15, %11
  %17 = add nsw i32 %16, %1
  br label %21

18:                                               ; preds = %4
  %19 = mul nsw i32 %3, %0
  %20 = add nsw i32 %19, %1
  br label %21

21:                                               ; preds = %6, %10, %14, %18
  %22 = phi i32 [ %17, %14 ], [ %20, %18 ], [ -1, %10 ], [ -1, %6 ]
  ret i32 %22
}

; Function Attrs: nofree nounwind
declare noundef i32 @printf(i8* nocapture noundef readonly, ...) local_unnamed_addr #2

; Function Attrs: argmemonly mustprogress nofree nosync nounwind willreturn
declare void @llvm.lifetime.end.p0i8(i64 immarg, i8* nocapture) #1


!llvm.module.flags = !{!0, !1, !2, !3}
!llvm.ident = !{!4}

!0 = !{i32 1, !"wchar_size", i32 4}
!1 = !{i32 7, !"PIC Level", i32 2}
!2 = !{i32 7, !"PIE Level", i32 2}
!3 = !{i32 7, !"uwtable", i32 1}
!4 = !{!"clang version 13.0.0"}
!5 = !{!6, !6, i64 0}
!6 = !{!"int", !7, i64 0}
!7 = !{!"omnipotent char", !8, i64 0}
!8 = !{!"Simple C/C++ TBAA"}
!9 = distinct !{!9, !10}
!10 = !{!"llvm.loop.mustprogress"}
